target datalayout = "e-m:e-p270:32:32-p271:32:32-p272:64:64-i64:64-i128:128-f80:128-n8:16:32:64-S128"
target triple = "x86_64-pc-linux-gnu"

%struct.git_hash_algo = type { ptr, i32, i64, i64, i64, ptr, ptr, ptr, ptr, ptr, ptr, ptr, ptr, ptr }
%struct.object_id = type { [32 x i8], i32 }
%struct.repository = type { ptr, ptr, ptr, ptr, ptr, %struct.strmap, %struct.strmap, %struct.repo_path_cache, ptr, ptr, ptr, ptr, %struct.repo_settings, ptr, ptr, ptr, ptr, ptr, ptr, i32, i32, i32, ptr, ptr, i32, i32, i8 }
%struct.strmap = type { %struct.hashmap, ptr, i8 }
%struct.hashmap = type { ptr, ptr, ptr, i32, i32, i32, i32, i8 }
%struct.repo_path_cache = type { ptr, ptr, ptr, ptr, ptr, ptr, ptr }
%struct.repo_settings = type { i32, i32, i32, i32, i32, i32, i32, i32, i32, i32, i32, i32, ptr, i32, i32, i32, i32, i32, i32, i32, i64, i64, i64 }

@the_repository = external global ptr, align 8

; Function Attrs: nounwind uwtable
define dso_local void @flush_one_hunk(ptr noundef %0, ptr noundef %1) #0 {
  %3 = alloca ptr, align 8
  %4 = alloca ptr, align 8
  %5 = alloca [32 x i8], align 16
  %6 = alloca i16, align 2
  %7 = alloca i32, align 4
  store ptr %0, ptr %3, align 8, !tbaa !141
  store ptr %1, ptr %4, align 8, !tbaa !283
  call void @llvm.lifetime.start.p0(i64 32, ptr %5) #10
  call void @llvm.lifetime.start.p0(i64 2, ptr %6) #10
  store i16 0, ptr %6, align 2, !tbaa !142
  call void @llvm.lifetime.start.p0(i64 4, ptr %7) #10
  %8 = load ptr, ptr @the_repository, align 8, !tbaa !87
  %9 = getelementptr inbounds nuw %struct.repository, ptr %8, i32 0, i32 17
  %10 = load ptr, ptr %9, align 8, !tbaa !198
  %11 = getelementptr inbounds nuw %struct.git_hash_algo, ptr %10, i32 0, i32 8
  %12 = load ptr, ptr %11, align 8, !tbaa !285
  %13 = getelementptr inbounds [32 x i8], ptr %5, i64 0, i64 0
  %14 = load ptr, ptr %4, align 8, !tbaa !283
  call void %12(ptr noundef %13, ptr noundef %14)
  %15 = load ptr, ptr @the_repository, align 8, !tbaa !87
  %16 = getelementptr inbounds nuw %struct.repository, ptr %15, i32 0, i32 17
  %17 = load ptr, ptr %16, align 8, !tbaa !198
  %18 = getelementptr inbounds nuw %struct.git_hash_algo, ptr %17, i32 0, i32 5
  %19 = load ptr, ptr %18, align 8, !tbaa !286
  %20 = load ptr, ptr %4, align 8, !tbaa !283
  call void %19(ptr noundef %20)
  store i32 0, ptr %7, align 4, !tbaa !16
  br label %21

21:                                               ; preds = %59, %2
  %22 = load i32, ptr %7, align 4, !tbaa !16
  %23 = sext i32 %22 to i64
  %24 = load ptr, ptr @the_repository, align 8, !tbaa !87
  %25 = getelementptr inbounds nuw %struct.repository, ptr %24, i32 0, i32 17
  %26 = load ptr, ptr %25, align 8, !tbaa !198
  %27 = getelementptr inbounds nuw %struct.git_hash_algo, ptr %26, i32 0, i32 2
  %28 = load i64, ptr %27, align 8, !tbaa !287
  %29 = icmp ult i64 %23, %28
  br i1 %29, label %30, label %62

30:                                               ; preds = %21
  %31 = load ptr, ptr %3, align 8, !tbaa !141
  %32 = getelementptr inbounds nuw %struct.object_id, ptr %31, i32 0, i32 0
  %33 = load i32, ptr %7, align 4, !tbaa !16
  %34 = sext i32 %33 to i64
  %35 = getelementptr inbounds [32 x i8], ptr %32, i64 0, i64 %34
  %36 = load i8, ptr %35, align 1, !tbaa !48
  %37 = zext i8 %36 to i32
  %38 = load i32, ptr %7, align 4, !tbaa !16
  %39 = sext i32 %38 to i64
  %40 = getelementptr inbounds [32 x i8], ptr %5, i64 0, i64 %39
  %41 = load i8, ptr %40, align 1, !tbaa !48
  %42 = zext i8 %41 to i32
  %43 = add nsw i32 %37, %42
  %44 = load i16, ptr %6, align 2, !tbaa !142
  %45 = zext i16 %44 to i32
  %46 = add nsw i32 %45, %43
  %47 = trunc i32 %46 to i16
  store i16 %47, ptr %6, align 2, !tbaa !142
  %48 = load i16, ptr %6, align 2, !tbaa !142
  %49 = trunc i16 %48 to i8
  %50 = load ptr, ptr %3, align 8, !tbaa !141
  %51 = getelementptr inbounds nuw %struct.object_id, ptr %50, i32 0, i32 0
  %52 = load i32, ptr %7, align 4, !tbaa !16
  %53 = sext i32 %52 to i64
  %54 = getelementptr inbounds [32 x i8], ptr %51, i64 0, i64 %53
  store i8 %49, ptr %54, align 1, !tbaa !48
  %55 = load i16, ptr %6, align 2, !tbaa !142
  %56 = zext i16 %55 to i32
  %57 = ashr i32 %56, 8
  %58 = trunc i32 %57 to i16
  store i16 %58, ptr %6, align 2, !tbaa !142
  br label %59

59:                                               ; preds = %30
  %60 = load i32, ptr %7, align 4, !tbaa !16
  %61 = add nsw i32 %60, 1
  store i32 %61, ptr %7, align 4, !tbaa !16
  br label %21, !llvm.loop !288

62:                                               ; preds = %21
  call void @llvm.lifetime.end.p0(i64 4, ptr %7) #10
  call void @llvm.lifetime.end.p0(i64 2, ptr %6) #10
  call void @llvm.lifetime.end.p0(i64 32, ptr %5) #10
  ret void
}