; Function Attrs: nounwind uwtable
define dso_local void @flush_one_hunk(ptr noundef captures(none) %0, ptr noundef %1) local_unnamed_addr #0 {
  %3 = alloca [32 x i8], align 16
  call void @llvm.lifetime.start.p0(i64 32, ptr nonnull %3) #32
  %4 = load ptr, ptr @the_repository, align 8, !tbaa !190
  %5 = getelementptr inbounds nuw i8, ptr %4, i64 400
  %6 = load ptr, ptr %5, align 8, !tbaa !191
  %7 = getelementptr inbounds nuw i8, ptr %6, i64 64
  %8 = load ptr, ptr %7, align 8, !tbaa !262
  call void %8(ptr noundef nonnull %3, ptr noundef %1) #32
  %9 = load ptr, ptr @the_repository, align 8, !tbaa !190
  %10 = getelementptr inbounds nuw i8, ptr %9, i64 400
  %11 = load ptr, ptr %10, align 8, !tbaa !191
  %12 = getelementptr inbounds nuw i8, ptr %11, i64 40
  %13 = load ptr, ptr %12, align 8, !tbaa !263
  call void %13(ptr noundef %1) #32
  %14 = load ptr, ptr @the_repository, align 8, !tbaa !190
  %15 = getelementptr inbounds nuw i8, ptr %14, i64 400
  %16 = load ptr, ptr %15, align 8, !tbaa !191
  %17 = getelementptr inbounds nuw i8, ptr %16, i64 16
  %18 = load i64, ptr %17, align 8, !tbaa !264
  %.not = icmp eq i64 %18, 0
  br i1 %.not, label %._crit_edge, label %.lr.ph

.lr.ph:                                           ; preds = %2, %.lr.ph
  %indvars.iv = phi i64 [ %indvars.iv.next, %.lr.ph ], [ 0, %2 ]
  %.01113 = phi i16 [ %28, %.lr.ph ], [ 0, %2 ]
  %19 = getelementptr inbounds nuw [32 x i8], ptr %0, i64 0, i64 %indvars.iv
  %20 = load i8, ptr %19, align 1, !tbaa !38
  %21 = zext i8 %20 to i16
  %22 = getelementptr inbounds nuw [32 x i8], ptr %3, i64 0, i64 %indvars.iv
  %23 = load i8, ptr %22, align 1, !tbaa !38
  %24 = zext i8 %23 to i16
  %25 = add nuw nsw i16 %.01113, %21
  %26 = add nuw nsw i16 %25, %24
  %27 = trunc i16 %26 to i8
  store i8 %27, ptr %19, align 1, !tbaa !38
  %28 = lshr i16 %26, 8
  %indvars.iv.next = add nuw nsw i64 %indvars.iv, 1
  %29 = load ptr, ptr @the_repository, align 8, !tbaa !190
  %30 = getelementptr inbounds nuw i8, ptr %29, i64 400
  %31 = load ptr, ptr %30, align 8, !tbaa !191
  %32 = getelementptr inbounds nuw i8, ptr %31, i64 16
  %33 = load i64, ptr %32, align 8, !tbaa !264
  %34 = icmp ugt i64 %33, %indvars.iv.next
  br i1 %34, label %.lr.ph, label %._crit_edge, !llvm.loop !265

._crit_edge:                                      ; preds = %.lr.ph, %2
  call void @llvm.lifetime.end.p0(i64 32, ptr nonnull %3) #32
  ret void
}